target datalayout = "e-m:e-p270:32:32-p271:32:32-p272:64:64-i64:64-i128:128-f80:128-n8:16:32:64-S128"
target triple = "x86_64-unknown-linux-gnu"

%"class.sat::literal" = type { i32 }
%"class.sat::watched" = type <{ i64, i32, [4 x i8] }>
%class.vector.51 = type { ptr }

; Function Attrs: mustprogress nounwind uwtable
define linkonce_odr hidden void @_ZN3sat7literalC2Ev(ptr noundef nonnull align 4 dereferenceable(4) %this) unnamed_addr #4 comdat align 2 {
entry:
  %this.addr = alloca ptr, align 8
  store ptr %this, ptr %this.addr, align 8
  %this1 = load ptr, ptr %this.addr, align 8
  %m_val = getelementptr inbounds %"class.sat::literal", ptr %this1, i32 0, i32 0
  store i32 -2, ptr %m_val, align 4
  ret void
}

; Function Attrs: mustprogress uwtable
define linkonce_odr hidden i32 @_ZN3sat10to_literalEj(i32 noundef %x) #5 comdat {
entry:
  %retval = alloca %"class.sat::literal", align 4
  %x.addr = alloca i32, align 4
  store i32 %x, ptr %x.addr, align 4
  call void @_ZN3sat7literalC2Ev(ptr noundef nonnull align 4 dereferenceable(4) %retval)
  %0 = load i32, ptr %x.addr, align 4
  %m_val = getelementptr inbounds %"class.sat::literal", ptr %retval, i32 0, i32 0
  store i32 %0, ptr %m_val, align 4
  %coerce.dive = getelementptr inbounds %"class.sat::literal", ptr %retval, i32 0, i32 0
  %1 = load i32, ptr %coerce.dive, align 4
  ret i32 %1
}

; Function Attrs: mustprogress nounwind uwtable
define linkonce_odr hidden noundef i32 @_ZNK3sat7watched8get_kindEv(ptr noundef nonnull align 8 dereferenceable(12) %this) #4 comdat align 2 {
entry:
  %this.addr = alloca ptr, align 8
  store ptr %this, ptr %this.addr, align 8
  %this1 = load ptr, ptr %this.addr, align 8
  %m_val2 = getelementptr inbounds %"class.sat::watched", ptr %this1, i32 0, i32 1
  %0 = load i32, ptr %m_val2, align 8
  %and = and i32 %0, 3
  ret i32 %and
}

; Function Attrs: mustprogress nounwind uwtable
define linkonce_odr hidden noundef i32 @_ZNK6vectorIN3sat7watchedELb1EjE4sizeEv(ptr noundef nonnull align 8 dereferenceable(8) %this) #4 comdat align 2 {
entry:
  %retval = alloca i32, align 4
  %this.addr = alloca ptr, align 8
  store ptr %this, ptr %this.addr, align 8
  %this1 = load ptr, ptr %this.addr, align 8
  %m_data = getelementptr inbounds %class.vector.51, ptr %this1, i32 0, i32 0
  %0 = load ptr, ptr %m_data, align 8
  %cmp = icmp eq ptr %0, null
  br i1 %cmp, label %if.then, label %if.end

if.then:                                          ; preds = %entry
  store i32 0, ptr %retval, align 4
  br label %return

if.end:                                           ; preds = %entry
  %m_data2 = getelementptr inbounds %class.vector.51, ptr %this1, i32 0, i32 0
  %1 = load ptr, ptr %m_data2, align 8
  %arrayidx = getelementptr inbounds i32, ptr %1, i64 -1
  %2 = load i32, ptr %arrayidx, align 4
  store i32 %2, ptr %retval, align 4
  br label %return

return:                                           ; preds = %if.end, %if.then
  %3 = load i32, ptr %retval, align 4
  ret i32 %3
}

; Function Attrs: mustprogress nounwind uwtable
define linkonce_odr hidden void @_ZN3sat7watched11set_learnedEb(ptr noundef nonnull align 8 dereferenceable(12) %this, i1 noundef zeroext %l) #4 comdat align 2 {
entry:
  %this.addr = alloca ptr, align 8
  %l.addr = alloca i8, align 1
  store ptr %this, ptr %this.addr, align 8
  %frombool = zext i1 %l to i8
  store i8 %frombool, ptr %l.addr, align 1
  %this1 = load ptr, ptr %this.addr, align 8
  %0 = load i8, ptr %l.addr, align 1
  %tobool = trunc i8 %0 to i1
  br i1 %tobool, label %if.then, label %if.else

if.then:                                          ; preds = %entry
  %m_val2 = getelementptr inbounds %"class.sat::watched", ptr %this1, i32 0, i32 1
  %1 = load i32, ptr %m_val2, align 8
  %or = or i32 %1, 4
  store i32 %or, ptr %m_val2, align 8
  br label %if.end

if.else:                                          ; preds = %entry
  %m_val22 = getelementptr inbounds %"class.sat::watched", ptr %this1, i32 0, i32 1
  %2 = load i32, ptr %m_val22, align 8
  %and = and i32 %2, -5
  store i32 %and, ptr %m_val22, align 8
  br label %if.end

if.end:                                           ; preds = %if.else, %if.then
  ret void
}

; Function Attrs: mustprogress nounwind uwtable
define linkonce_odr hidden noundef zeroext i1 @_ZNK3sat7watched10is_learnedEv(ptr noundef nonnull align 8 dereferenceable(12) %this) #4 comdat align 2 {
entry:
  %this.addr = alloca ptr, align 8
  store ptr %this, ptr %this.addr, align 8
  %this1 = load ptr, ptr %this.addr, align 8
  %m_val2 = getelementptr inbounds %"class.sat::watched", ptr %this1, i32 0, i32 1
  %0 = load i32, ptr %m_val2, align 8
  %shr = lshr i32 %0, 2
  %and = and i32 %shr, 1
  %cmp = icmp eq i32 %and, 1
  ret i1 %cmp
}

; Function Attrs: mustprogress nounwind uwtable
define linkonce_odr hidden noundef zeroext i1 @_ZN3sateqERKNS_7literalES2_(ptr noundef nonnull align 4 dereferenceable(4) %l1, ptr noundef nonnull align 4 dereferenceable(4) %l2) #4 comdat {
entry:
  %l1.addr = alloca ptr, align 8
  %l2.addr = alloca ptr, align 8
  store ptr %l1, ptr %l1.addr, align 8
  store ptr %l2, ptr %l2.addr, align 8
  %0 = load ptr, ptr %l1.addr, align 8
  %m_val = getelementptr inbounds %"class.sat::literal", ptr %0, i32 0, i32 0
  %1 = load i32, ptr %m_val, align 4
  %2 = load ptr, ptr %l2.addr, align 8
  %m_val1 = getelementptr inbounds %"class.sat::literal", ptr %2, i32 0, i32 0
  %3 = load i32, ptr %m_val1, align 4
  %cmp = icmp eq i32 %1, %3
  ret i1 %cmp
}

; Function Attrs: mustprogress uwtable
define linkonce_odr hidden i32 @_ZNK3sat7watched11get_literalEv(ptr noundef nonnull align 8 dereferenceable(12) %this) #5 comdat align 2 {
entry:
  %retval = alloca %"class.sat::literal", align 4
  %this.addr = alloca ptr, align 8
  store ptr %this, ptr %this.addr, align 8
  %this1 = load ptr, ptr %this.addr, align 8
  %m_val1 = getelementptr inbounds %"class.sat::watched", ptr %this1, i32 0, i32 0
  %0 = load i64, ptr %m_val1, align 8
  %conv = trunc i64 %0 to i32
  %call = call i32 @_ZN3sat10to_literalEj(i32 noundef %conv)
  %coerce.dive = getelementptr inbounds %"class.sat::literal", ptr %retval, i32 0, i32 0
  store i32 %call, ptr %coerce.dive, align 4
  %coerce.dive2 = getelementptr inbounds %"class.sat::literal", ptr %retval, i32 0, i32 0
  %1 = load i32, ptr %coerce.dive2, align 4
  ret i32 %1
}

; Function Attrs: mustprogress nounwind uwtable
define linkonce_odr hidden noundef zeroext i1 @_ZNK3sat7watched16is_binary_clauseEv(ptr noundef nonnull align 8 dereferenceable(12) %this) #4 comdat align 2 {
entry:
  %this.addr = alloca ptr, align 8
  store ptr %this, ptr %this.addr, align 8
  %this1 = load ptr, ptr %this.addr, align 8
  %call = call noundef i32 @_ZNK3sat7watched8get_kindEv(ptr noundef nonnull align 8 dereferenceable(12) %this1)
  %cmp = icmp eq i32 %call, 0
  ret i1 %cmp
}

; Function Attrs: mustprogress uwtable
define linkonce_odr hidden noundef ptr @_ZN6vectorIN3sat7watchedELb1EjE3endEv(ptr noundef nonnull align 8 dereferenceable(8) %this) #5 comdat align 2 {
entry:
  %this.addr = alloca ptr, align 8
  store ptr %this, ptr %this.addr, align 8
  %this1 = load ptr, ptr %this.addr, align 8
  %m_data = getelementptr inbounds %class.vector.51, ptr %this1, i32 0, i32 0
  %0 = load ptr, ptr %m_data, align 8
  %call = call noundef i32 @_ZNK6vectorIN3sat7watchedELb1EjE4sizeEv(ptr noundef nonnull align 8 dereferenceable(8) %this1)
  %idx.ext = zext i32 %call to i64
  %add.ptr = getelementptr inbounds %"class.sat::watched", ptr %0, i64 %idx.ext
  ret ptr %add.ptr
}

; Function Attrs: mustprogress nounwind uwtable
define linkonce_odr hidden noundef ptr @_ZN6vectorIN3sat7watchedELb1EjE5beginEv(ptr noundef nonnull align 8 dereferenceable(8) %this) #4 comdat align 2 {
entry:
  %this.addr = alloca ptr, align 8
  store ptr %this, ptr %this.addr, align 8
  %this1 = load ptr, ptr %this.addr, align 8
  %m_data = getelementptr inbounds %class.vector.51, ptr %this1, i32 0, i32 0
  %0 = load ptr, ptr %m_data, align 8
  ret ptr %0
}

; Function Attrs: mustprogress uwtable
define hidden void @_ZN3sat10simplifier24mark_as_not_learned_coreER6vectorINS_7watchedELb1EjENS_7literalE(ptr noundef nonnull align 8 dereferenceable(288) %this, ptr noundef nonnull align 8 dereferenceable(8) %wlist, i32 %l2.coerce) #5 align 2 {
entry:
  %l2 = alloca %"class.sat::literal", align 4
  %this.addr = alloca ptr, align 8
  %wlist.addr = alloca ptr, align 8
  %__range1 = alloca ptr, align 8
  %__begin1 = alloca ptr, align 8
  %__end1 = alloca ptr, align 8
  %w = alloca ptr, align 8
  %ref.tmp = alloca %"class.sat::literal", align 4
  %coerce.dive = getelementptr inbounds %"class.sat::literal", ptr %l2, i32 0, i32 0
  store i32 %l2.coerce, ptr %coerce.dive, align 4
  store ptr %this, ptr %this.addr, align 8
  store ptr %wlist, ptr %wlist.addr, align 8
  %0 = load ptr, ptr %wlist.addr, align 8
  store ptr %0, ptr %__range1, align 8
  %1 = load ptr, ptr %__range1, align 8
  %call = call noundef ptr @_ZN6vectorIN3sat7watchedELb1EjE5beginEv(ptr noundef nonnull align 8 dereferenceable(8) %1)
  store ptr %call, ptr %__begin1, align 8
  %2 = load ptr, ptr %__range1, align 8
  %call2 = call noundef ptr @_ZN6vectorIN3sat7watchedELb1EjE3endEv(ptr noundef nonnull align 8 dereferenceable(8) %2)
  store ptr %call2, ptr %__end1, align 8
  br label %for.cond

for.cond:                                         ; preds = %for.inc, %entry
  %3 = load ptr, ptr %__begin1, align 8
  %4 = load ptr, ptr %__end1, align 8
  %cmp = icmp ne ptr %3, %4
  br i1 %cmp, label %for.body, label %for.end

for.body:                                         ; preds = %for.cond
  %5 = load ptr, ptr %__begin1, align 8
  store ptr %5, ptr %w, align 8
  %6 = load ptr, ptr %w, align 8
  %call3 = call noundef zeroext i1 @_ZNK3sat7watched16is_binary_clauseEv(ptr noundef nonnull align 8 dereferenceable(12) %6)
  br i1 %call3, label %land.lhs.true, label %land.end

land.lhs.true:                                    ; preds = %for.body
  %7 = load ptr, ptr %w, align 8
  %call4 = call i32 @_ZNK3sat7watched11get_literalEv(ptr noundef nonnull align 8 dereferenceable(12) %7)
  %coerce.dive5 = getelementptr inbounds %"class.sat::literal", ptr %ref.tmp, i32 0, i32 0
  store i32 %call4, ptr %coerce.dive5, align 4
  %call6 = call noundef zeroext i1 @_ZN3sateqERKNS_7literalES2_(ptr noundef nonnull align 4 dereferenceable(4) %ref.tmp, ptr noundef nonnull align 4 dereferenceable(4) %l2)
  br i1 %call6, label %land.rhs, label %land.end

land.rhs:                                         ; preds = %land.lhs.true
  %8 = load ptr, ptr %w, align 8
  %call7 = call noundef zeroext i1 @_ZNK3sat7watched10is_learnedEv(ptr noundef nonnull align 8 dereferenceable(12) %8)
  br label %land.end

land.end:                                         ; preds = %land.rhs, %land.lhs.true, %for.body
  %9 = phi i1 [ false, %land.lhs.true ], [ false, %for.body ], [ %call7, %land.rhs ]
  br i1 %9, label %if.then, label %if.end

if.then:                                          ; preds = %land.end
  %10 = load ptr, ptr %w, align 8
  call void @_ZN3sat7watched11set_learnedEb(ptr noundef nonnull align 8 dereferenceable(12) %10, i1 noundef zeroext false)
  br label %for.end

if.end:                                           ; preds = %land.end
  br label %for.inc

for.inc:                                          ; preds = %if.end
  %11 = load ptr, ptr %__begin1, align 8
  %incdec.ptr = getelementptr inbounds %"class.sat::watched", ptr %11, i32 1
  store ptr %incdec.ptr, ptr %__begin1, align 8
  br label %for.cond

for.end:                                          ; preds = %if.then, %for.cond
  ret void
}