; Function Attrs: mustprogress nofree norecurse nosync nounwind memory(readwrite, inaccessiblemem: none) uwtable
define hidden void @_ZN3sat10simplifier24mark_as_not_learned_coreER6vectorINS_7watchedELb1EjENS_7literalE(ptr nocapture noundef nonnull readnone align 8 dereferenceable(288) %this, ptr nocapture noundef nonnull readonly align 8 dereferenceable(8) %wlist, i32 %l2.coerce) local_unnamed_addr #5 align 2 {
entry:
  %0 = load ptr, ptr %wlist, align 8
  %cmp.i.i = icmp eq ptr %0, null
  br i1 %cmp.i.i, label %for.end, label %_ZN6vectorIN3sat7watchedELb1EjE3endEv.exit

_ZN6vectorIN3sat7watchedELb1EjE3endEv.exit:       ; preds = %entry
  %arrayidx.i.i = getelementptr inbounds i8, ptr %0, i64 -4
  %1 = load i32, ptr %arrayidx.i.i, align 4
  %2 = zext i32 %1 to i64
  %add.ptr.i = getelementptr inbounds %"class.sat::watched", ptr %0, i64 %2
  %cmp.not10 = icmp eq i32 %1, 0
  br i1 %cmp.not10, label %for.end, label %for.body

for.body:                                         ; preds = %_ZN6vectorIN3sat7watchedELb1EjE3endEv.exit, %for.inc
  %__begin1.011 = phi ptr [ %incdec.ptr, %for.inc ], [ %0, %_ZN6vectorIN3sat7watchedELb1EjE3endEv.exit ]
  %m_val2.i.i = getelementptr inbounds i8, ptr %__begin1.011, i64 8
  %3 = load i32, ptr %m_val2.i.i, align 8
  %and.i.i = and i32 %3, 3
  %cmp.i = icmp eq i32 %and.i.i, 0
  br i1 %cmp.i, label %land.lhs.true, label %for.inc

land.lhs.true:                                    ; preds = %for.body
  %4 = load i64, ptr %__begin1.011, align 8
  %conv.i = trunc i64 %4 to i32
  %cmp.i7 = icmp eq i32 %conv.i, %l2.coerce
  %5 = and i32 %3, 4
  %cmp.i8 = icmp ne i32 %5, 0
  %or.cond = and i1 %cmp.i8, %cmp.i7
  br i1 %or.cond, label %if.then, label %for.inc

if.then:                                          ; preds = %land.lhs.true
  %m_val2.i.i.le = getelementptr inbounds i8, ptr %__begin1.011, i64 8
  %and.i = and i32 %3, -8
  store i32 %and.i, ptr %m_val2.i.i.le, align 8
  br label %for.end

for.inc:                                          ; preds = %for.body, %land.lhs.true
  %incdec.ptr = getelementptr inbounds i8, ptr %__begin1.011, i64 16
  %cmp.not = icmp eq ptr %incdec.ptr, %add.ptr.i
  br i1 %cmp.not, label %for.end, label %for.body

for.end:                                          ; preds = %for.inc, %entry, %_ZN6vectorIN3sat7watchedELb1EjE3endEv.exit, %if.then
  ret void
}